S'1'
p0
.(lp0
F0.9373249271975099
aF0.9750238280674423
aF0.9568382682480109
aF0.9705062310971315
aF0.9552016472292201
a.(lp0
F42.47985096627454
aF95.93794058504179
aF15.850848225334373
aF3.985093075418383
aF14.236067633760719
a.S'2'
p0
.(lp0
F0.9264209409324612
aF0.9712764360883476
aF0.9041709175551731
aF0.9358930674588775
aF0.9222771579185735
a.(lp0
F27.71809586987793
aF84.09203111470292
aF41.815046276310696
aF8.484189430021853
aF16.256076882941528
a.S'1'
p0
.(lp0
F0.8851574855162384
aF0.9028733782538092
aF0.9797644328159616
aF0.9896306124822305
aF0.9733505998161424
a.(lp0
F21.897309919252077
aF78.79900976264759
aF12.127128298214679
aF13.728909041159062
aF21.384348125879676
a.S'1'
p0
.(lp0
F0.8461006991811266
aF0.7127576769858529
aF0.8160953089069591
aF0.903182155726936
aF0.8199914927934606
a.(lp0
F19.975223410227443
aF33.183813022774565
aF21.882074449645604
aF8.350989647614375
aF18.447432288439977
a.S'2'
p0
.(lp0
F0.9539278399083473
aF0.9258860868697127
aF0.7165817489433524
aF0.882360086622126
aF0.836934322234357
a.(lp0
F60.74778202309807
aF106.83691924113502
aF44.66064126329884
aF23.73320776947111
aF28.438435365457025
a.S'2'
p0
.(lp0
F0.9773027471833486
aF0.9756756507811363
aF0.9500028913229447
aF0.9125270383625923
aF0.8363214433499004
a.(lp0
F44.27667803229923
aF88.57035384663163
aF88.9515158298244
aF25.74355672483927
aF31.783903124234826
a.S'3'
p0
.(lp0
F0.8277666837347611
aF0.8976266141962627
aF0.8962171967621214
aF0.8703339811086818
aF0.7304963089722227
a.(lp0
F17.78604777663568
aF80.60719155121627
aF86.04262283755261
aF79.06405297055704
aF20.96333760583402
a.S'4'
p0
.(lp0
F0.9060455898716566
aF0.9479079104083894
aF0.9521240742856623
aF0.8955751797550058
aF0.8423801673770005
a.(lp0
F19.692572767665922
aF81.05690920887925
aF83.78674367758256
aF76.47896895508504
aF67.37989859635957
a.S'5'
p0
.(lp0
F0.9715486159268386
aF0.8596637747046968
aF0.9182369487226555
aF0.97460324355321
aF0.9827516003305148
a.(lp0
F68.13650528017648
aF79.09007267312631
aF83.65628175269009
aF81.60917699864787
aF74.95453758981182
a.S'6'
p0
.(lp0
F0.9786862343768259
aF0.8292460253211231
aF0.945508135657327
aF0.9525615179577415
aF0.950099232703496
a.(lp0
F65.38611175658768
aF84.41812994798197
aF92.3786677511504
aF86.81464274078353
aF75.8072547783844
a.S'6'
p0
.(lp0
F0.962760855770231
aF0.972483911795836
aF0.9885772063519941
aF0.9835138716369258
aF0.9798894237115416
a.(lp0
F62.47714298362482
aF83.11997205662361
aF85.98635171110728
aF80.92271406839124
aF73.53692167419557
a.